target datalayout = "e-m:e-p270:32:32-p271:32:32-p272:64:64-i64:64-i128:128-f80:128-n8:16:32:64-S128"
target triple = "x86_64-pc-linux-gnu"

%struct.FT_CMapRec_ = type { %struct.FT_CharMapRec_, ptr }
%struct.FT_CharMapRec_ = type { ptr, i32, i16, i16 }
%struct.TT_FaceRec_ = type { %struct.FT_FaceRec_, %struct.TTC_HeaderRec_, i64, i16, ptr, %struct.TT_Header_, %struct.TT_HoriHeader_, %struct.TT_MaxProfile_, i8, %struct.TT_VertHeader_, i16, %struct.TT_NameTableRec_, %struct.TT_OS2_, %struct.TT_Postscript_, ptr, i64, ptr, ptr, ptr, ptr, ptr, ptr, ptr, ptr, ptr, ptr, ptr, ptr, %struct.TT_Gasp_, %struct.TT_PCLT_, i64, ptr, %struct.TT_Post_NamesRec_, %struct.FT_Palette_Data_, i16, ptr, i8, %struct.FT_Color_, i64, ptr, i64, ptr, i64, ptr, ptr, %struct.FT_Generic_, ptr, i64, i64, i8, i8, ptr, i32, ptr, i32, i32, ptr, i64, i64, i64, ptr, ptr, i64, i32, i64, ptr, ptr, i64, i32, i32, ptr, ptr, i64, i32, i32, i32, %struct.TT_BDFRec_, i64, i64, i64, i64, ptr, ptr, ptr }
%struct.FT_FaceRec_ = type { i64, i64, i64, i64, i64, ptr, ptr, i32, ptr, i32, ptr, %struct.FT_Generic_, %struct.FT_BBox_, i16, i16, i16, i16, i16, i16, i16, i16, ptr, ptr, ptr, ptr, ptr, ptr, %struct.FT_ListRec_, %struct.FT_Generic_, ptr, ptr }
%struct.FT_BBox_ = type { i64, i64, i64, i64 }
%struct.FT_ListRec_ = type { ptr, ptr }
%struct.TTC_HeaderRec_ = type { i64, i64, i64, ptr }
%struct.TT_Header_ = type { i64, i64, i64, i64, i16, i16, [2 x i64], [2 x i64], i16, i16, i16, i16, i16, i16, i16, i16, i16 }
%struct.TT_HoriHeader_ = type { i64, i16, i16, i16, i16, i16, i16, i16, i16, i16, i16, [4 x i16], i16, i16, ptr, ptr }
%struct.TT_MaxProfile_ = type { i64, i16, i16, i16, i16, i16, i16, i16, i16, i16, i16, i16, i16, i16, i16 }
%struct.TT_VertHeader_ = type { i64, i16, i16, i16, i16, i16, i16, i16, i16, i16, i16, [4 x i16], i16, i16, ptr, ptr }
%struct.TT_NameTableRec_ = type { i16, i32, i32, ptr, i32, ptr, ptr }
%struct.TT_OS2_ = type { i16, i16, i16, i16, i16, i16, i16, i16, i16, i16, i16, i16, i16, i16, i16, i16, [10 x i8], i64, i64, i64, i64, [4 x i8], i16, i16, i16, i16, i16, i16, i16, i16, i64, i64, i16, i16, i16, i16, i16, i16, i16 }
%struct.TT_Postscript_ = type { i64, i64, i16, i16, i64, i64, i64, i64, i64 }
%struct.TT_Gasp_ = type { i16, i16, ptr }
%struct.TT_PCLT_ = type { i64, i64, i16, i16, i16, i16, i16, i16, [16 x i8], [8 x i8], [6 x i8], i8, i8, i8, i8 }
%struct.TT_Post_NamesRec_ = type { i8, i16, i16, ptr, ptr }
%struct.FT_Palette_Data_ = type { i16, ptr, ptr, i16, ptr }
%struct.FT_Color_ = type { i8, i8, i8, i8 }
%struct.FT_Generic_ = type { ptr, ptr }
%struct.TT_BDFRec_ = type { ptr, ptr, ptr, i64, i32, i8 }
%struct.CFF_FontRec_ = type { ptr, ptr, ptr, i64, i32, i32, i8, i8, i8, i32, i8, %struct.CFF_IndexRec_, %struct.CFF_IndexRec_, %struct.CFF_IndexRec_, %struct.CFF_EncodingRec_, %struct.CFF_CharsetRec_, %struct.CFF_IndexRec_, %struct.CFF_IndexRec_, %struct.CFF_IndexRec_, %struct.CFF_IndexRec_, ptr, ptr, i32, ptr, ptr, i64, %struct.CFF_SubFontRec_, i32, [256 x ptr], %struct.CFF_FDSelectRec_, ptr, ptr, ptr, ptr, ptr, ptr, %struct.FT_Generic_, %struct.CFF_VStoreRec_, ptr }
%struct.CFF_EncodingRec_ = type { i32, i64, i32, [256 x i16], [256 x i16] }
%struct.CFF_CharsetRec_ = type { i32, i64, ptr, ptr, i32, i32 }
%struct.CFF_IndexRec_ = type { ptr, i64, i32, i32, i8, i64, i64, ptr, ptr }
%struct.CFF_SubFontRec_ = type { %struct.CFF_FontRecDictRec_, %struct.CFF_PrivateRec_, %struct.CFF_BlendRec_, i32, ptr, ptr, ptr, i32, i32, %struct.CFF_IndexRec_, ptr, i32 }
%struct.CFF_FontRecDictRec_ = type { i32, i32, i32, i32, i32, i32, i8, i64, i64, i64, i32, i32, %struct.FT_Matrix_, i8, i64, %struct.FT_Vector_, i64, %struct.FT_BBox_, i64, i64, i64, i64, i64, i64, i64, i32, i32, i32, i64, i64, i64, i64, i64, i64, i64, i64, i32, i16, i16, i64, i32 }
%struct.FT_Matrix_ = type { i64, i64, i64, i64 }
%struct.FT_Vector_ = type { i64, i64 }
%struct.CFF_PrivateRec_ = type { i8, i8, i8, i8, [14 x i64], [10 x i64], [14 x i64], [10 x i64], i64, i64, i64, i64, i64, i8, i8, [13 x i64], [13 x i64], i8, i64, i32, i32, i64, i64, i64, i64, i64, i32, ptr }
%struct.CFF_BlendRec_ = type { i8, i8, ptr, i32, i32, ptr, i32, ptr }
%struct.CFF_FDSelectRec_ = type { i8, i32, ptr, i32, i32, i32, i8 }
%struct.CFF_VStoreRec_ = type { i32, ptr, i16, i32, ptr }
%struct.FT_Service_PsCMapsRec_ = type { ptr, ptr, ptr, ptr, ptr, ptr, ptr, ptr }

; Function Attrs: nounwind uwtable
define internal i32 @cff_cmap_unicode_init(ptr noundef %0, ptr noundef %1) #0 {
  %3 = alloca i32, align 4
  %4 = alloca ptr, align 8
  %5 = alloca ptr, align 8
  %6 = alloca ptr, align 8
  %7 = alloca ptr, align 8
  %8 = alloca ptr, align 8
  %9 = alloca ptr, align 8
  %10 = alloca ptr, align 8
  %11 = alloca ptr, align 8
  store ptr %0, ptr %4, align 8
  store ptr %1, ptr %5, align 8
  %12 = load ptr, ptr %4, align 8
  store ptr %12, ptr %6, align 8
  %13 = load ptr, ptr %4, align 8
  %14 = getelementptr inbounds %struct.FT_CMapRec_, ptr %13, i32 0, i32 0
  %15 = getelementptr inbounds %struct.FT_CharMapRec_, ptr %14, i32 0, i32 0
  %16 = load ptr, ptr %15, align 8
  store ptr %16, ptr %7, align 8
  %17 = load ptr, ptr %7, align 8
  %18 = getelementptr inbounds %struct.FT_FaceRec_, ptr %17, i32 0, i32 25
  %19 = load ptr, ptr %18, align 8
  store ptr %19, ptr %8, align 8
  %20 = load ptr, ptr %7, align 8
  %21 = getelementptr inbounds %struct.TT_FaceRec_, ptr %20, i32 0, i32 45
  %22 = getelementptr inbounds %struct.FT_Generic_, ptr %21, i32 0, i32 0
  %23 = load ptr, ptr %22, align 8
  store ptr %23, ptr %9, align 8
  %24 = load ptr, ptr %9, align 8
  %25 = getelementptr inbounds %struct.CFF_FontRec_, ptr %24, i32 0, i32 15
  store ptr %25, ptr %10, align 8
  %26 = load ptr, ptr %9, align 8
  %27 = getelementptr inbounds %struct.CFF_FontRec_, ptr %26, i32 0, i32 31
  %28 = load ptr, ptr %27, align 8
  store ptr %28, ptr %11, align 8
  %29 = load ptr, ptr %5, align 8
  store ptr %29, ptr %5, align 8
  %30 = load ptr, ptr %10, align 8
  %31 = getelementptr inbounds %struct.CFF_CharsetRec_, ptr %30, i32 0, i32 2
  %32 = load ptr, ptr %31, align 8
  %33 = icmp ne ptr %32, null
  br i1 %33, label %35, label %34

34:                                               ; preds = %2
  store i32 163, ptr %3, align 4
  br label %52

35:                                               ; preds = %2
  %36 = load ptr, ptr %11, align 8
  %37 = getelementptr inbounds %struct.FT_Service_PsCMapsRec_, ptr %36, i32 0, i32 1
  %38 = load ptr, ptr %37, align 8
  %39 = icmp ne ptr %38, null
  br i1 %39, label %41, label %40

40:                                               ; preds = %35
  store i32 7, ptr %3, align 4
  br label %52

41:                                               ; preds = %35
  %42 = load ptr, ptr %11, align 8
  %43 = getelementptr inbounds %struct.FT_Service_PsCMapsRec_, ptr %42, i32 0, i32 1
  %44 = load ptr, ptr %43, align 8
  %45 = load ptr, ptr %8, align 8
  %46 = load ptr, ptr %6, align 8
  %47 = load ptr, ptr %9, align 8
  %48 = getelementptr inbounds %struct.CFF_FontRec_, ptr %47, i32 0, i32 5
  %49 = load i32, ptr %48, align 4
  %50 = load ptr, ptr %7, align 8
  %51 = call i32 %44(ptr noundef %45, ptr noundef %46, i32 noundef %49, ptr noundef @cff_sid_to_glyph_name, ptr noundef null, ptr noundef %50)
  store i32 %51, ptr %3, align 4
  br label %52

52:                                               ; preds = %41, %40, %34
  %53 = load i32, ptr %3, align 4
  ret i32 %53
}