; Function Attrs: nounwind uwtable
define internal i32 @cff_cmap_unicode_init(ptr noundef %0, ptr nocapture readnone %1) #4 {
  %3 = load ptr, ptr %0, align 8
  %4 = getelementptr inbounds i8, ptr %3, i64 184
  %5 = load ptr, ptr %4, align 8
  %6 = getelementptr inbounds i8, ptr %3, i64 1168
  %7 = load ptr, ptr %6, align 8
  %8 = getelementptr inbounds i8, ptr %7, i64 1312
  %9 = load ptr, ptr %8, align 8
  %.not = icmp eq ptr %9, null
  br i1 %.not, label %19, label %10

10:                                               ; preds = %2
  %11 = getelementptr inbounds i8, ptr %7, i64 4960
  %12 = load ptr, ptr %11, align 8
  %13 = getelementptr inbounds i8, ptr %12, i64 8
  %14 = load ptr, ptr %13, align 8
  %.not15 = icmp eq ptr %14, null
  br i1 %.not15, label %19, label %15

15:                                               ; preds = %10
  %16 = getelementptr inbounds i8, ptr %7, i64 36
  %17 = load i32, ptr %16, align 4
  %18 = tail call i32 %14(ptr noundef %5, ptr noundef nonnull %0, i32 noundef %17, ptr noundef nonnull @cff_sid_to_glyph_name, ptr noundef null, ptr noundef nonnull %3) #20
  br label %19

19:                                               ; preds = %10, %2, %15
  %.0 = phi i32 [ %18, %15 ], [ 163, %2 ], [ 7, %10 ]
  ret i32 %.0
}